target datalayout = "e-m:e-p270:32:32-p271:32:32-p272:64:64-i64:64-i128:128-f80:128-n8:16:32:64-S128"
target triple = "x86_64-pc-linux-gnu"

@packet_preamble_len = internal global i32 0, align 4
@packet_preamble = internal global [2049 x i8] zeroinitializer, align 16
@.str.26 = private unnamed_addr constant [25 x i8] c"FATAL ERROR: str is NULL\00", align 1

; Function Attrs: null_pointer_is_valid sspstrong uwtable
define internal i32 @append_to_preamble(ptr noundef %0) #0 {
  %2 = alloca i32, align 4
  %3 = alloca ptr, align 8
  %4 = alloca i64, align 8
  %5 = alloca i32, align 4
  %6 = alloca ptr, align 8
  %7 = alloca [2048 x i8], align 16
  store ptr %0, ptr %3, align 8
  call void @llvm.lifetime.start.p0(i64 8, ptr %4) #15
  %8 = load i32, ptr @packet_preamble_len, align 4
  %9 = icmp ne i32 %8, 0
  br i1 %9, label %10, label %19

10:                                               ; preds = %1
  %11 = load i32, ptr @packet_preamble_len, align 4
  %12 = icmp eq i32 %11, 2048
  br i1 %12, label %13, label %14

13:                                               ; preds = %10
  store i32 0, ptr %2, align 4
  store i32 1, ptr %5, align 4
  br label %62

14:                                               ; preds = %10
  %15 = load i32, ptr @packet_preamble_len, align 4
  %16 = add i32 %15, 1
  store i32 %16, ptr @packet_preamble_len, align 4
  %17 = sext i32 %15 to i64
  %18 = getelementptr [2049 x i8], ptr @packet_preamble, i64 0, i64 %17
  store i8 32, ptr %18, align 1
  br label %19

19:                                               ; preds = %14, %1
  %20 = load ptr, ptr %3, align 8
  %21 = icmp eq ptr %20, null
  br i1 %21, label %22, label %23

22:                                               ; preds = %19
  call void (ptr, ...) @report_failure(ptr noundef @.str.26)
  store i32 1, ptr %2, align 4
  store i32 1, ptr %5, align 4
  br label %62

23:                                               ; preds = %19
  %24 = load ptr, ptr %3, align 8
  %25 = call i64 @strlen(ptr noundef %24) #16
  store i64 %25, ptr %4, align 8
  %26 = load i64, ptr %4, align 8
  %27 = icmp ne i64 %26, 0
  br i1 %27, label %28, label %61

28:                                               ; preds = %23
  %29 = load i32, ptr @packet_preamble_len, align 4
  %30 = sext i32 %29 to i64
  %31 = load i64, ptr %4, align 8
  %32 = add i64 %30, %31
  %33 = icmp ugt i64 %32, 2048
  br i1 %33, label %34, label %35

34:                                               ; preds = %28
  store i32 0, ptr %2, align 4
  store i32 1, ptr %5, align 4
  br label %62

35:                                               ; preds = %28
  %36 = load i32, ptr @packet_preamble_len, align 4
  %37 = sext i32 %36 to i64
  %38 = getelementptr [2049 x i8], ptr @packet_preamble, i64 0, i64 %37
  %39 = load ptr, ptr %3, align 8
  %40 = call i64 @g_strlcpy(ptr noundef %38, ptr noundef %39, i64 noundef 2048)
  %41 = load i64, ptr %4, align 8
  %42 = trunc i64 %41 to i32
  %43 = load i32, ptr @packet_preamble_len, align 4
  %44 = add i32 %43, %42
  store i32 %44, ptr @packet_preamble_len, align 4
  %45 = call i32 @ws_log_get_level()
  %46 = icmp uge i32 %45, 1
  br i1 %46, label %47, label %60

47:                                               ; preds = %35
  call void @llvm.lifetime.start.p0(i64 8, ptr %6) #15
  call void @llvm.lifetime.start.p0(i64 2048, ptr %7) #15
  %48 = getelementptr inbounds [2048 x i8], ptr %7, i64 0, i64 0
  %49 = call i64 @g_strlcpy(ptr noundef %48, ptr noundef @packet_preamble, i64 noundef 2048)
  br label %50

50:                                               ; preds = %54, %47
  %51 = getelementptr inbounds [2048 x i8], ptr %7, i64 0, i64 0
  %52 = call ptr @strchr(ptr noundef %51, i32 noundef 13) #16
  store ptr %52, ptr %6, align 8
  %53 = icmp ne ptr %52, null
  br i1 %53, label %54, label %56

54:                                               ; preds = %50
  %55 = load ptr, ptr %6, align 8
  store i8 32, ptr %55, align 1
  br label %50, !llvm.loop !31

56:                                               ; preds = %50
  br label %57

57:                                               ; preds = %56
  br label %58

58:                                               ; preds = %57
  br label %59

59:                                               ; preds = %58
  call void @llvm.lifetime.end.p0(i64 2048, ptr %7) #15
  call void @llvm.lifetime.end.p0(i64 8, ptr %6) #15
  br label %60

60:                                               ; preds = %59, %35
  br label %61

61:                                               ; preds = %60, %23
  store i32 0, ptr %2, align 4
  store i32 1, ptr %5, align 4
  br label %62

62:                                               ; preds = %61, %34, %22, %13
  call void @llvm.lifetime.end.p0(i64 8, ptr %4) #15
  %63 = load i32, ptr %2, align 4
  ret i32 %63
}