; Function Attrs: null_pointer_is_valid sspstrong uwtable
define internal fastcc void @append_to_preamble(ptr noundef %0) unnamed_addr #0 {
  %2 = alloca [2048 x i8], align 16
  %3 = load i32, ptr @packet_preamble_len, align 4
  switch i32 %3, label %4 [
    i32 0, label %9
    i32 2048, label %29
  ]

4:                                                ; preds = %1
  %5 = add i32 %3, 1
  store i32 %5, ptr @packet_preamble_len, align 4
  %6 = sext i32 %3 to i64
  %7 = getelementptr [2049 x i8], ptr @packet_preamble, i64 0, i64 %6
  store i8 32, ptr %7, align 1
  %8 = sext i32 %5 to i64
  br label %9

9:                                                ; preds = %1, %4
  %10 = phi i64 [ 0, %1 ], [ %8, %4 ]
  %11 = icmp eq ptr %0, null
  br i1 %11, label %12, label %13

12:                                               ; preds = %9
  tail call void (ptr, ...) @report_failure(ptr noundef nonnull @.str.26)
  br label %29

13:                                               ; preds = %9
  %14 = tail call i64 @strlen(ptr noundef nonnull dereferenceable(1) %0) #17
  %.not11 = icmp eq i64 %14, 0
  %15 = add i64 %14, %10
  %16 = icmp ugt i64 %15, 2048
  %or.cond = or i1 %.not11, %16
  br i1 %or.cond, label %29, label %17

17:                                               ; preds = %13
  %18 = getelementptr [2049 x i8], ptr @packet_preamble, i64 0, i64 %10
  %19 = tail call i64 @g_strlcpy(ptr noundef %18, ptr noundef nonnull %0, i64 noundef 2048)
  %20 = trunc i64 %14 to i32
  %21 = load i32, ptr @packet_preamble_len, align 4
  %22 = add i32 %21, %20
  store i32 %22, ptr @packet_preamble_len, align 4
  %23 = tail call i32 @ws_log_get_level()
  %.not12 = icmp eq i32 %23, 0
  br i1 %.not12, label %29, label %24

24:                                               ; preds = %17
  call void @llvm.lifetime.start.p0(i64 2048, ptr nonnull %2) #18
  %25 = call i64 @g_strlcpy(ptr noundef nonnull %2, ptr noundef nonnull @packet_preamble, i64 noundef 2048)
  %26 = call ptr @strchr(ptr noundef nonnull dereferenceable(1) %2, i32 noundef 13) #17
  %.not1314 = icmp eq ptr %26, null
  br i1 %.not1314, label %._crit_edge, label %.lr.ph

.lr.ph:                                           ; preds = %24, %.lr.ph
  %27 = phi ptr [ %28, %.lr.ph ], [ %26, %24 ]
  store i8 32, ptr %27, align 1
  %28 = call ptr @strchr(ptr noundef nonnull dereferenceable(1) %2, i32 noundef 13) #17
  %.not13 = icmp eq ptr %28, null
  br i1 %.not13, label %._crit_edge, label %.lr.ph, !llvm.loop !30

._crit_edge:                                      ; preds = %.lr.ph, %24
  call void @llvm.lifetime.end.p0(i64 2048, ptr nonnull %2) #18
  br label %29

29:                                               ; preds = %13, %._crit_edge, %17, %1, %12
  ret void
}